; Function Attrs: nounwind uwtable
define i32 @glfwGetInputMode(ptr noundef readonly captures(none) %0, i32 noundef %1) local_unnamed_addr #0 {
  %3 = load i32, ptr @_glfw, align 8, !tbaa !170
  %.not = icmp eq i32 %3, 0
  br i1 %.not, label %4, label %5

4:                                                ; preds = %2
  tail call void (i32, ptr, ...) @_glfwInputError(i32 noundef 65537, ptr noundef null) #12
  br label %22

5:                                                ; preds = %2
  switch i32 %1, label %21 [
    i32 208897, label %6
    i32 208898, label %9
    i32 208899, label %12
    i32 208900, label %15
    i32 208901, label %18
  ]

6:                                                ; preds = %5
  %7 = getelementptr inbounds nuw i8, ptr %0, i64 140
  %8 = load i32, ptr %7, align 4, !tbaa !171
  br label %22

9:                                                ; preds = %5
  %10 = getelementptr inbounds nuw i8, ptr %0, i64 128
  %11 = load i32, ptr %10, align 8, !tbaa !6
  br label %22

12:                                               ; preds = %5
  %13 = getelementptr inbounds nuw i8, ptr %0, i64 132
  %14 = load i32, ptr %13, align 4, !tbaa !56
  br label %22

15:                                               ; preds = %5
  %16 = getelementptr inbounds nuw i8, ptr %0, i64 136
  %17 = load i32, ptr %16, align 8, !tbaa !52
  br label %22

18:                                               ; preds = %5
  %19 = getelementptr inbounds nuw i8, ptr %0, i64 520
  %20 = load i32, ptr %19, align 8, !tbaa !172
  br label %22

21:                                               ; preds = %5
  tail call void (i32, ptr, ...) @_glfwInputError(i32 noundef 65539, ptr noundef nonnull @.str.395, i32 noundef %1) #12
  br label %22

22:                                               ; preds = %21, %18, %15, %12, %9, %6, %4
  %.0 = phi i32 [ 0, %21 ], [ %20, %18 ], [ %17, %15 ], [ %14, %12 ], [ %11, %9 ], [ %8, %6 ], [ 0, %4 ]
  ret i32 %.0
}